target datalayout = "e-m:e-p270:32:32-p271:32:32-p272:64:64-i64:64-i128:128-f80:128-n8:16:32:64-S128"
target triple = "x86_64-pc-linux-gnu"

; Function Attrs: nounwind uwtable
define i32 @Kit_PlaGetCubeNum(ptr noundef %0) #0 {
  %2 = alloca i32, align 4
  %3 = alloca ptr, align 8
  %4 = alloca ptr, align 8
  %5 = alloca i32, align 4
  %6 = alloca i32, align 4
  store ptr %0, ptr %3, align 8, !tbaa !3
  call void @llvm.lifetime.start.p0(i64 8, ptr %4) #9
  call void @llvm.lifetime.start.p0(i64 4, ptr %5) #9
  store i32 0, ptr %5, align 4, !tbaa !11
  %7 = load ptr, ptr %3, align 8, !tbaa !3
  %8 = icmp eq ptr %7, null
  br i1 %8, label %9, label %10

9:                                                ; preds = %1
  store i32 0, ptr %2, align 4
  store i32 1, ptr %6, align 4
  br label %29

10:                                               ; preds = %1
  %11 = load ptr, ptr %3, align 8, !tbaa !3
  store ptr %11, ptr %4, align 8, !tbaa !3
  br label %12

12:                                               ; preds = %24, %10
  %13 = load ptr, ptr %4, align 8, !tbaa !3
  %14 = load i8, ptr %13, align 1, !tbaa !8
  %15 = icmp ne i8 %14, 0
  br i1 %15, label %16, label %27

16:                                               ; preds = %12
  %17 = load ptr, ptr %4, align 8, !tbaa !3
  %18 = load i8, ptr %17, align 1, !tbaa !8
  %19 = sext i8 %18 to i32
  %20 = icmp eq i32 %19, 10
  %21 = zext i1 %20 to i32
  %22 = load i32, ptr %5, align 4, !tbaa !11
  %23 = add nsw i32 %22, %21
  store i32 %23, ptr %5, align 4, !tbaa !11
  br label %24

24:                                               ; preds = %16
  %25 = load ptr, ptr %4, align 8, !tbaa !3
  %26 = getelementptr inbounds nuw i8, ptr %25, i32 1
  store ptr %26, ptr %4, align 8, !tbaa !3
  br label %12, !llvm.loop !13

27:                                               ; preds = %12
  %28 = load i32, ptr %5, align 4, !tbaa !11
  store i32 %28, ptr %2, align 4
  store i32 1, ptr %6, align 4
  br label %29

29:                                               ; preds = %27, %9
  call void @llvm.lifetime.end.p0(i64 4, ptr %5) #9
  call void @llvm.lifetime.end.p0(i64 8, ptr %4) #9
  %30 = load i32, ptr %2, align 4
  ret i32 %30
}