; Function Attrs: nofree norecurse nosync nounwind memory(argmem: read) uwtable
define i32 @Kit_PlaGetCubeNum(ptr noundef readonly %0) local_unnamed_addr #1 {
  %2 = icmp eq ptr %0, null
  br i1 %2, label %.loopexit, label %.preheader

.preheader:                                       ; preds = %1
  %3 = load i8, ptr %0, align 1, !tbaa !3
  %.not11 = icmp eq i8 %3, 0
  br i1 %.not11, label %.loopexit, label %.lr.ph

.lr.ph:                                           ; preds = %.preheader, %.lr.ph
  %4 = phi i8 [ %9, %.lr.ph ], [ %3, %.preheader ]
  %.013 = phi i32 [ %7, %.lr.ph ], [ 0, %.preheader ]
  %.0712 = phi ptr [ %8, %.lr.ph ], [ %0, %.preheader ]
  %5 = icmp eq i8 %4, 10
  %6 = zext i1 %5 to i32
  %7 = add nuw nsw i32 %.013, %6
  %8 = getelementptr inbounds nuw i8, ptr %.0712, i64 1
  %9 = load i8, ptr %8, align 1, !tbaa !3
  %.not = icmp eq i8 %9, 0
  br i1 %.not, label %.loopexit, label %.lr.ph, !llvm.loop !8

.loopexit:                                        ; preds = %.lr.ph, %.preheader, %1
  %.08 = phi i32 [ 0, %1 ], [ 0, %.preheader ], [ %7, %.lr.ph ]
  ret i32 %.08
}